; Function Attrs: mustprogress nounwind uwtable
define hidden void @_ZN6hermes12RegisterFile4dumpEv(ptr nocapture noundef nonnull readonly align 8 dereferenceable(24) %this) local_unnamed_addr #0 align 2 {
entry:
  %call = tail call noundef nonnull align 8 dereferenceable(36) ptr @_ZN4llvh4outsEv() #18
  %OutBufEnd.i5.i = getelementptr inbounds i8, ptr %call, i64 16
  %0 = load ptr, ptr %OutBufEnd.i5.i, align 8
  %OutBufCur.i6.i = getelementptr inbounds i8, ptr %call, i64 24
  %1 = load ptr, ptr %OutBufCur.i6.i, align 8
  %cmp.i.i = icmp eq ptr %0, %1
  br i1 %cmp.i.i, label %if.then.i.i, label %if.then4.i.i

if.then.i.i:                                      ; preds = %entry
  %call3.i.i = tail call noundef nonnull align 8 dereferenceable(36) ptr @_ZN4llvh11raw_ostream5writeEPKcm(ptr noundef nonnull align 8 dereferenceable(36) %call, ptr noundef nonnull @.str.6, i64 noundef 1) #18
  br label %_ZN4llvh11raw_ostreamlsEPKc.exit

if.then4.i.i:                                     ; preds = %entry
  store i8 10, ptr %1, align 1
  %2 = load ptr, ptr %OutBufCur.i6.i, align 8
  %add.ptr.i.i = getelementptr inbounds i8, ptr %2, i64 1
  store ptr %add.ptr.i.i, ptr %OutBufCur.i6.i, align 8
  br label %_ZN4llvh11raw_ostreamlsEPKc.exit

_ZN4llvh11raw_ostreamlsEPKc.exit:                 ; preds = %if.then.i.i, %if.then4.i.i
  %Size.i = getelementptr inbounds i8, ptr %this, i64 16
  %3 = load i32, ptr %Size.i, align 8
  %cmp19.not = icmp eq i32 %3, 0
  br i1 %cmp19.not, label %for.end, label %for.body

for.body:                                         ; preds = %_ZN4llvh11raw_ostreamlsEPKc.exit, %for.body
  %i.020 = phi i32 [ %inc, %for.body ], [ 0, %_ZN4llvh11raw_ostreamlsEPKc.exit ]
  %call4 = tail call noundef nonnull align 8 dereferenceable(36) ptr @_ZN4llvh4outsEv() #18
  %rem.i.i = and i32 %i.020, 63
  %sh_prom.i.i = zext nneg i32 %rem.i.i to i64
  %div2.i.i = lshr i32 %i.020, 6
  %conv.i.i = zext nneg i32 %div2.i.i to i64
  %4 = load ptr, ptr %this, align 8
  %arrayidx.i.i.i = getelementptr inbounds i64, ptr %4, i64 %conv.i.i
  %5 = load i64, ptr %arrayidx.i.i.i, align 8
  %6 = xor i64 %5, -1
  %7 = lshr i64 %6, %sh_prom.i.i
  %conv.i = and i64 %7, 1
  %call.i = tail call noundef nonnull align 8 dereferenceable(36) ptr @_ZN4llvh11raw_ostreamlsEl(ptr noundef nonnull align 8 dereferenceable(36) %call4, i64 noundef %conv.i) #18
  %inc = add nuw i32 %i.020, 1
  %8 = load i32, ptr %Size.i, align 8
  %cmp = icmp ult i32 %inc, %8
  br i1 %cmp, label %for.body, label %for.end, !llvm.loop !7

for.end:                                          ; preds = %for.body, %_ZN4llvh11raw_ostreamlsEPKc.exit
  %call8 = tail call noundef nonnull align 8 dereferenceable(36) ptr @_ZN4llvh4outsEv() #18
  %OutBufEnd.i5.i5 = getelementptr inbounds i8, ptr %call8, i64 16
  %9 = load ptr, ptr %OutBufEnd.i5.i5, align 8
  %OutBufCur.i6.i6 = getelementptr inbounds i8, ptr %call8, i64 24
  %10 = load ptr, ptr %OutBufCur.i6.i6, align 8
  %cmp.i.i10 = icmp eq ptr %9, %10
  br i1 %cmp.i.i10, label %if.then.i.i16, label %if.then4.i.i13

if.then.i.i16:                                    ; preds = %for.end
  %call3.i.i17 = tail call noundef nonnull align 8 dereferenceable(36) ptr @_ZN4llvh11raw_ostream5writeEPKcm(ptr noundef nonnull align 8 dereferenceable(36) %call8, ptr noundef nonnull @.str.6, i64 noundef 1) #18
  br label %_ZN4llvh11raw_ostreamlsEPKc.exit18

if.then4.i.i13:                                   ; preds = %for.end
  store i8 10, ptr %10, align 1
  %11 = load ptr, ptr %OutBufCur.i6.i6, align 8
  %add.ptr.i.i14 = getelementptr inbounds i8, ptr %11, i64 1
  store ptr %add.ptr.i.i14, ptr %OutBufCur.i6.i6, align 8
  br label %_ZN4llvh11raw_ostreamlsEPKc.exit18

_ZN4llvh11raw_ostreamlsEPKc.exit18:               ; preds = %if.then.i.i16, %if.then4.i.i13
  ret void
}